target datalayout = "e-m:e-p270:32:32-p271:32:32-p272:64:64-i64:64-i128:128-f80:128-n8:16:32:64-S128"
target triple = "x86_64-pc-linux-gnu"

%union.mbedtls_ssl_user_data_t = type { i64 }
%struct.mbedtls_ssl_context = type { ptr, i32, i32, i32, i32, i32, ptr, ptr, ptr, ptr, ptr, ptr, ptr, ptr, ptr, ptr, ptr, ptr, ptr, ptr, ptr, ptr, ptr, ptr, ptr, ptr, ptr, ptr, ptr, ptr, ptr, ptr, ptr, i32, i64, i64, i16, i64, i64, i64, i64, i32, i32, i8, i8, i32, i8, ptr, ptr, ptr, ptr, ptr, ptr, ptr, i32, i64, i64, [8 x i8], i16, ptr, ptr, ptr, i64, i32, i64, [12 x i8], [12 x i8], [32 x i8], i8, i8, ptr, ptr, %union.mbedtls_ssl_user_data_t }

; Function Attrs: nounwind uwtable
define hidden void @mbedtls_ssl_set_timer_cb(ptr noundef %0, ptr noundef %1, ptr noundef %2, ptr noundef %3) #0 {
  %5 = alloca ptr, align 8
  %6 = alloca ptr, align 8
  %7 = alloca ptr, align 8
  %8 = alloca ptr, align 8
  store ptr %0, ptr %5, align 8, !tbaa !27
  store ptr %1, ptr %6, align 8, !tbaa !70
  store ptr %2, ptr %7, align 8, !tbaa !70
  store ptr %3, ptr %8, align 8, !tbaa !70
  %9 = load ptr, ptr %6, align 8, !tbaa !70
  %10 = load ptr, ptr %5, align 8, !tbaa !27
  %11 = getelementptr inbounds nuw %struct.mbedtls_ssl_context, ptr %10, i32 0, i32 22
  store ptr %9, ptr %11, align 8, !tbaa !168
  %12 = load ptr, ptr %7, align 8, !tbaa !70
  %13 = load ptr, ptr %5, align 8, !tbaa !27
  %14 = getelementptr inbounds nuw %struct.mbedtls_ssl_context, ptr %13, i32 0, i32 23
  store ptr %12, ptr %14, align 8, !tbaa !169
  %15 = load ptr, ptr %8, align 8, !tbaa !70
  %16 = load ptr, ptr %5, align 8, !tbaa !27
  %17 = getelementptr inbounds nuw %struct.mbedtls_ssl_context, ptr %16, i32 0, i32 24
  store ptr %15, ptr %17, align 8, !tbaa !170
  %18 = load ptr, ptr %5, align 8, !tbaa !27
  call void @mbedtls_ssl_set_timer(ptr noundef %18, i32 noundef 0)
  ret void
}