; Function Attrs: nounwind uwtable
define hidden void @mbedtls_ssl_set_timer_cb(ptr noundef initializes((160, 184)) %0, ptr noundef %1, ptr noundef %2, ptr noundef %3) local_unnamed_addr #1 {
  %5 = getelementptr inbounds nuw i8, ptr %0, i64 160
  store ptr %1, ptr %5, align 8, !tbaa !146
  %6 = getelementptr inbounds nuw i8, ptr %0, i64 168
  store ptr %2, ptr %6, align 8, !tbaa !147
  %7 = getelementptr inbounds nuw i8, ptr %0, i64 176
  store ptr %3, ptr %7, align 8, !tbaa !148
  tail call void @mbedtls_ssl_set_timer(ptr noundef %0, i32 noundef 0) #26
  ret void
}